; Function Attrs: mustprogress nounwind uwtable
define hidden void @_ZN6hermes3sem17SemanticValidator5visitEPNS_6ESTree28ImportNamespaceSpecifierNodeE(ptr noundef nonnull align 8 dereferenceable(168) %this, ptr noundef %importDecl) local_unnamed_addr #0 align 2 {
entry:
  %_local = getelementptr inbounds nuw i8, ptr %importDecl, i64 48
  %0 = load ptr, ptr %_local, align 8
  %funcCtx_.i = getelementptr inbounds nuw i8, ptr %this, i64 152
  %1 = load ptr, ptr %funcCtx_.i, align 8
  %varDecls = getelementptr inbounds nuw i8, ptr %1, i64 40
  %2 = load ptr, ptr %varDecls, align 8
  %scopedDecls = getelementptr inbounds nuw i8, ptr %1, i64 48
  %3 = load ptr, ptr %scopedDecls, align 8
  tail call void @_ZN6hermes3sem17SemanticValidator24validateDeclarationNamesENS_18JavaScriptDeclKindEPNS_6ESTree4NodeEPN4llvh11SmallVectorINS0_12FunctionInfo7VarDeclELj4EEESB_(ptr noundef nonnull align 8 dereferenceable(168) %this, i8 noundef zeroext 2, ptr noundef %0, ptr noundef %2, ptr noundef %3)
  %4 = load ptr, ptr %_local, align 8
  %call.i = tail call { ptr, i8 } @_ZN6hermes6ESTree24RecursiveVisitorDispatchINS_3sem17SemanticValidatorELb1EE5visitERS3_PNS0_4NodeES7_(ptr noundef nonnull align 8 dereferenceable(168) %this, ptr noundef %4, ptr noundef %importDecl)
  ret void
}